target datalayout = "e-m:e-p270:32:32-p271:32:32-p272:64:64-i64:64-i128:128-f80:128-n8:16:32:64-S128"
target triple = "x86_64-pc-linux-gnu"

%"class.gmx::ArrayRef" = type { %"struct.gmx::ArrayRefIter", %"struct.gmx::ArrayRefIter" }
%"struct.gmx::ArrayRefIter" = type { ptr }
%struct.gmx_pme_t = type { i32, i32, i32, i32, i32, i32, i32, ptr, [2 x ptr], ptr, i8, i32, i8, i8, i8, i8, i8, i8, i32, i32, i32, i8, i32, float, float, float, i32, float, i32, ptr, %"class.std::unique_ptr", i32, i32, i32, i32, i32, i32, i32, i32, %"class.std::unique_ptr.2", %"class.std::shared_ptr", %"class.std::vector", %"class.std::vector", %"class.std::vector.10", %"class.std::vector.15", %"class.std::vector.20", %"class.std::vector.20", %"class.std::vector.20", %"class.std::vector.25", %"class.std::vector.25", %"class.std::vector.25", %"class.std::vector.30", [3 x [3 x float]], float, %"struct.std::array", %"class.std::vector.35", %"class.std::vector.35", %"struct.std::array.37", %"class.std::unique_ptr.43", %"class.std::vector.51", %"class.std::vector.25", %"class.std::unique_ptr.56" }
%"class.std::unique_ptr" = type { %"struct.std::__uniq_ptr_data" }
%"struct.std::__uniq_ptr_data" = type { %"class.std::__uniq_ptr_impl" }
%"class.std::__uniq_ptr_impl" = type { %"class.std::tuple" }
%"class.std::tuple" = type { %"struct.std::_Tuple_impl" }
%"struct.std::_Tuple_impl" = type { %"struct.std::_Head_base.1" }
%"struct.std::_Head_base.1" = type { ptr }
%"class.std::unique_ptr.2" = type { %"struct.std::__uniq_ptr_data.3" }
%"struct.std::__uniq_ptr_data.3" = type { %"class.std::__uniq_ptr_impl.4" }
%"class.std::__uniq_ptr_impl.4" = type { %"class.std::tuple.5" }
%"class.std::tuple.5" = type { %"struct.std::_Tuple_impl.6" }
%"struct.std::_Tuple_impl.6" = type { %"struct.std::_Head_base.9" }
%"struct.std::_Head_base.9" = type { ptr }
%"class.std::shared_ptr" = type { %"class.std::__shared_ptr" }
%"class.std::__shared_ptr" = type { ptr, %"class.std::__shared_count" }
%"class.std::__shared_count" = type { ptr }
%"class.std::vector" = type { %"struct.std::_Vector_base" }
%"struct.std::_Vector_base" = type { %"struct.std::_Vector_base<PmeAndFftGrids, std::allocator<PmeAndFftGrids>>::_Vector_impl" }
%"struct.std::_Vector_base<PmeAndFftGrids, std::allocator<PmeAndFftGrids>>::_Vector_impl" = type { %"struct.std::_Vector_base<PmeAndFftGrids, std::allocator<PmeAndFftGrids>>::_Vector_impl_data" }
%"struct.std::_Vector_base<PmeAndFftGrids, std::allocator<PmeAndFftGrids>>::_Vector_impl_data" = type { ptr, ptr, ptr }
%"class.std::vector.10" = type { %"struct.std::_Vector_base.11" }
%"struct.std::_Vector_base.11" = type { %"struct.std::_Vector_base<gmx_pme_t::GridsRef, std::allocator<gmx_pme_t::GridsRef>>::_Vector_impl" }
%"struct.std::_Vector_base<gmx_pme_t::GridsRef, std::allocator<gmx_pme_t::GridsRef>>::_Vector_impl" = type { %"struct.std::_Vector_base<gmx_pme_t::GridsRef, std::allocator<gmx_pme_t::GridsRef>>::_Vector_impl_data" }
%"struct.std::_Vector_base<gmx_pme_t::GridsRef, std::allocator<gmx_pme_t::GridsRef>>::_Vector_impl_data" = type { ptr, ptr, ptr }
%"class.std::vector.15" = type { %"struct.std::_Vector_base.16" }
%"struct.std::_Vector_base.16" = type { %"struct.std::_Vector_base<t_complex *, std::allocator<t_complex *>>::_Vector_impl" }
%"struct.std::_Vector_base<t_complex *, std::allocator<t_complex *>>::_Vector_impl" = type { %"struct.std::_Vector_base<t_complex *, std::allocator<t_complex *>>::_Vector_impl_data" }
%"struct.std::_Vector_base<t_complex *, std::allocator<t_complex *>>::_Vector_impl_data" = type { ptr, ptr, ptr }
%"class.std::vector.20" = type { %"struct.std::_Vector_base.21" }
%"struct.std::_Vector_base.21" = type { %"struct.std::_Vector_base<int, std::allocator<int>>::_Vector_impl" }
%"struct.std::_Vector_base<int, std::allocator<int>>::_Vector_impl" = type { %"struct.std::_Vector_base<int, std::allocator<int>>::_Vector_impl_data" }
%"struct.std::_Vector_base<int, std::allocator<int>>::_Vector_impl_data" = type { ptr, ptr, ptr }
%"class.std::vector.30" = type { %"struct.std::_Vector_base.31" }
%"struct.std::_Vector_base.31" = type { %"struct.std::_Vector_base<PmeAtomComm, std::allocator<PmeAtomComm>>::_Vector_impl" }
%"struct.std::_Vector_base<PmeAtomComm, std::allocator<PmeAtomComm>>::_Vector_impl" = type { %"struct.std::_Vector_base<PmeAtomComm, std::allocator<PmeAtomComm>>::_Vector_impl_data" }
%"struct.std::_Vector_base<PmeAtomComm, std::allocator<PmeAtomComm>>::_Vector_impl_data" = type { ptr, ptr, ptr }
%"struct.std::array" = type { [3 x %"class.std::vector.25"] }
%"class.std::vector.35" = type { %"struct.std::_Vector_base.36" }
%"struct.std::_Vector_base.36" = type { %"struct.std::_Vector_base<float, gmx::DefaultInitializationAllocator<float>>::_Vector_impl" }
%"struct.std::_Vector_base<float, gmx::DefaultInitializationAllocator<float>>::_Vector_impl" = type { %"struct.std::_Vector_base<float, gmx::DefaultInitializationAllocator<float>>::_Vector_impl_data" }
%"struct.std::_Vector_base<float, gmx::DefaultInitializationAllocator<float>>::_Vector_impl_data" = type { ptr, ptr, ptr }
%"struct.std::array.37" = type { [2 x %struct.pme_overlap_t] }
%struct.pme_overlap_t = type { ptr, i32, i32, %"class.std::vector.20", %"class.std::vector.20", i32, %"class.std::vector.38", %"class.std::vector.25", %"class.std::vector.25" }
%"class.std::vector.38" = type { %"struct.std::_Vector_base.39" }
%"struct.std::_Vector_base.39" = type { %"struct.std::_Vector_base<pme_grid_comm_t, std::allocator<pme_grid_comm_t>>::_Vector_impl" }
%"struct.std::_Vector_base<pme_grid_comm_t, std::allocator<pme_grid_comm_t>>::_Vector_impl" = type { %"struct.std::_Vector_base<pme_grid_comm_t, std::allocator<pme_grid_comm_t>>::_Vector_impl_data" }
%"struct.std::_Vector_base<pme_grid_comm_t, std::allocator<pme_grid_comm_t>>::_Vector_impl_data" = type { ptr, ptr, ptr }
%"class.std::unique_ptr.43" = type { %"struct.std::__uniq_ptr_data.44" }
%"struct.std::__uniq_ptr_data.44" = type { %"class.std::__uniq_ptr_impl.45" }
%"class.std::__uniq_ptr_impl.45" = type { %"class.std::tuple.46" }
%"class.std::tuple.46" = type { %"struct.std::_Tuple_impl.47" }
%"struct.std::_Tuple_impl.47" = type { %"struct.std::_Head_base.50" }
%"struct.std::_Head_base.50" = type { ptr }
%"class.std::vector.51" = type { %"struct.std::_Vector_base.52" }
%"struct.std::_Vector_base.52" = type { %"struct.std::_Vector_base<gmx::BasicVector<float>, std::allocator<gmx::BasicVector<float>>>::_Vector_impl" }
%"struct.std::_Vector_base<gmx::BasicVector<float>, std::allocator<gmx::BasicVector<float>>>::_Vector_impl" = type { %"struct.std::_Vector_base<gmx::BasicVector<float>, std::allocator<gmx::BasicVector<float>>>::_Vector_impl_data" }
%"struct.std::_Vector_base<gmx::BasicVector<float>, std::allocator<gmx::BasicVector<float>>>::_Vector_impl_data" = type { ptr, ptr, ptr }
%"class.std::vector.25" = type { %"struct.std::_Vector_base.26" }
%"struct.std::_Vector_base.26" = type { %"struct.std::_Vector_base<float, std::allocator<float>>::_Vector_impl" }
%"struct.std::_Vector_base<float, std::allocator<float>>::_Vector_impl" = type { %"struct.std::_Vector_base<float, std::allocator<float>>::_Vector_impl_data" }
%"struct.std::_Vector_base<float, std::allocator<float>>::_Vector_impl_data" = type { ptr, ptr, ptr }
%"class.std::unique_ptr.56" = type { %"struct.std::__uniq_ptr_data.57" }
%"struct.std::__uniq_ptr_data.57" = type { %"class.std::__uniq_ptr_impl.58" }
%"class.std::__uniq_ptr_impl.58" = type { %"class.std::tuple.59" }
%"class.std::tuple.59" = type { %"struct.std::_Tuple_impl.60" }
%"struct.std::_Tuple_impl.60" = type { %"struct.std::_Head_base.63" }
%"struct.std::_Head_base.63" = type { ptr }
%struct.PmeAndFftGrids = type { %struct.pmegrids_t, ptr, ptr, %"class.std::unique_ptr.70" }
%struct.pmegrids_t = type <{ %struct.pmegrid_t, i32, [3 x i32], %"class.std::vector.64", %"struct.std::array.69", [3 x i32], [4 x i8] }>
%struct.pmegrid_t = type { [3 x i32], [3 x i32], [3 x i32], i32, [3 x i32], %"class.gmx::ArrayRef" }
%"class.std::vector.64" = type { %"struct.std::_Vector_base.65" }
%"struct.std::_Vector_base.65" = type { %"struct.std::_Vector_base<pmegrid_t, std::allocator<pmegrid_t>>::_Vector_impl" }
%"struct.std::_Vector_base<pmegrid_t, std::allocator<pmegrid_t>>::_Vector_impl" = type { %"struct.std::_Vector_base<pmegrid_t, std::allocator<pmegrid_t>>::_Vector_impl_data" }
%"struct.std::_Vector_base<pmegrid_t, std::allocator<pmegrid_t>>::_Vector_impl_data" = type { ptr, ptr, ptr }
%"struct.std::array.69" = type { [3 x %"class.std::vector.20"] }
%"class.std::unique_ptr.70" = type { %"struct.std::__uniq_ptr_data.71" }
%"struct.std::__uniq_ptr_data.71" = type { %"class.std::__uniq_ptr_impl.72" }
%"class.std::__uniq_ptr_impl.72" = type { %"class.std::tuple.73" }
%"class.std::tuple.73" = type { %"struct.std::_Tuple_impl.74" }
%"struct.std::_Tuple_impl.74" = type { %"struct.std::_Head_base.77" }
%"struct.std::_Head_base.77" = type { ptr }

; Function Attrs: mustprogress nounwind uwtable
define linkonce_odr noundef nonnull align 8 dereferenceable(8) ptr @_ZNSt10_Head_baseILm0EP18gmx_parallel_3dfftLb0EE7_M_headERKS2_(ptr noundef nonnull align 8 dereferenceable(8) %0) #2 comdat align 2 {
  %2 = alloca ptr, align 8
  store ptr %0, ptr %2, align 8, !tbaa !183
  %3 = load ptr, ptr %2, align 8, !tbaa !183
  %4 = getelementptr inbounds nuw %"struct.std::_Head_base.77", ptr %3, i32 0, i32 0
  ret ptr %4
}

; Function Attrs: mustprogress nounwind uwtable
define linkonce_odr noundef nonnull align 8 dereferenceable(8) ptr @_ZNSt11_Tuple_implILm0EJP18gmx_parallel_3dfftN3gmx15functor_wrapperIS0_XadL_Z22parallel_3dfft_destroyS1_EEEEEE7_M_headERKS5_(ptr noundef nonnull align 8 dereferenceable(8) %0) #2 comdat align 2 {
  %2 = alloca ptr, align 8
  store ptr %0, ptr %2, align 8, !tbaa !181
  %3 = load ptr, ptr %2, align 8, !tbaa !181
  %4 = call noundef nonnull align 8 dereferenceable(8) ptr @_ZNSt10_Head_baseILm0EP18gmx_parallel_3dfftLb0EE7_M_headERKS2_(ptr noundef nonnull align 8 dereferenceable(8) %3) #7
  ret ptr %4
}

; Function Attrs: mustprogress nounwind uwtable
define linkonce_odr noundef nonnull align 8 dereferenceable(8) ptr @_ZSt12__get_helperILm0EP18gmx_parallel_3dfftJN3gmx15functor_wrapperIS0_XadL_Z22parallel_3dfft_destroyS1_EEEEEERKT0_RKSt11_Tuple_implIXT_EJS5_DpT1_EE(ptr noundef nonnull align 8 dereferenceable(8) %0) #2 comdat {
  %2 = alloca ptr, align 8
  store ptr %0, ptr %2, align 8, !tbaa !181
  %3 = load ptr, ptr %2, align 8, !tbaa !181
  %4 = call noundef nonnull align 8 dereferenceable(8) ptr @_ZNSt11_Tuple_implILm0EJP18gmx_parallel_3dfftN3gmx15functor_wrapperIS0_XadL_Z22parallel_3dfft_destroyS1_EEEEEE7_M_headERKS5_(ptr noundef nonnull align 8 dereferenceable(8) %3) #7
  ret ptr %4
}

; Function Attrs: mustprogress nounwind uwtable
define linkonce_odr noundef nonnull align 8 dereferenceable(8) ptr @_ZSt3getILm0EJP18gmx_parallel_3dfftN3gmx15functor_wrapperIS0_XadL_Z22parallel_3dfft_destroyS1_EEEEEERKNSt13tuple_elementIXT_ESt5tupleIJDpT0_EEE4typeERKS9_(ptr noundef nonnull align 8 dereferenceable(8) %0) #2 comdat {
  %2 = alloca ptr, align 8
  store ptr %0, ptr %2, align 8, !tbaa !179
  %3 = load ptr, ptr %2, align 8, !tbaa !179
  %4 = call noundef nonnull align 8 dereferenceable(8) ptr @_ZSt12__get_helperILm0EP18gmx_parallel_3dfftJN3gmx15functor_wrapperIS0_XadL_Z22parallel_3dfft_destroyS1_EEEEEERKT0_RKSt11_Tuple_implIXT_EJS5_DpT1_EE(ptr noundef nonnull align 8 dereferenceable(8) %3) #7
  ret ptr %4
}

; Function Attrs: mustprogress nounwind uwtable
define linkonce_odr noundef ptr @_ZNKSt15__uniq_ptr_implI18gmx_parallel_3dfftN3gmx15functor_wrapperIS0_XadL_Z22parallel_3dfft_destroyPS0_EEEEE6_M_ptrEv(ptr noundef nonnull align 8 dereferenceable(8) %0) #2 comdat align 2 {
  %2 = alloca ptr, align 8
  store ptr %0, ptr %2, align 8, !tbaa !176
  %3 = load ptr, ptr %2, align 8
  %4 = getelementptr inbounds nuw %"class.std::__uniq_ptr_impl.72", ptr %3, i32 0, i32 0
  %5 = call noundef nonnull align 8 dereferenceable(8) ptr @_ZSt3getILm0EJP18gmx_parallel_3dfftN3gmx15functor_wrapperIS0_XadL_Z22parallel_3dfft_destroyS1_EEEEEERKNSt13tuple_elementIXT_ESt5tupleIJDpT0_EEE4typeERKS9_(ptr noundef nonnull align 8 dereferenceable(8) %4) #7
  %6 = load ptr, ptr %5, align 8, !tbaa !178
  ret ptr %6
}

; Function Attrs: mustprogress nounwind uwtable
define linkonce_odr noundef ptr @_ZNK3gmx12ArrayRefIterIfE4dataEv(ptr noundef nonnull align 8 dereferenceable(8) %0) #2 comdat align 2 {
  %2 = alloca ptr, align 8
  store ptr %0, ptr %2, align 8, !tbaa !147
  %3 = load ptr, ptr %2, align 8
  %4 = getelementptr inbounds nuw %"struct.gmx::ArrayRefIter", ptr %3, i32 0, i32 0
  %5 = load ptr, ptr %4, align 8, !tbaa !149
  ret ptr %5
}

; Function Attrs: mustprogress nounwind uwtable
define linkonce_odr noundef ptr @_ZNKSt10unique_ptrI18gmx_parallel_3dfftN3gmx15functor_wrapperIS0_XadL_Z22parallel_3dfft_destroyPS0_EEEEE3getEv(ptr noundef nonnull align 8 dereferenceable(8) %0) #2 comdat align 2 {
  %2 = alloca ptr, align 8
  store ptr %0, ptr %2, align 8, !tbaa !174
  %3 = load ptr, ptr %2, align 8
  %4 = getelementptr inbounds nuw %"class.std::unique_ptr.70", ptr %3, i32 0, i32 0
  %5 = call noundef ptr @_ZNKSt15__uniq_ptr_implI18gmx_parallel_3dfftN3gmx15functor_wrapperIS0_XadL_Z22parallel_3dfft_destroyPS0_EEEEE6_M_ptrEv(ptr noundef nonnull align 8 dereferenceable(8) %4) #7
  ret ptr %5
}

; Function Attrs: mustprogress nounwind uwtable
define linkonce_odr noundef ptr @_ZNK3gmx8ArrayRefIfE4dataEv(ptr noundef nonnull align 8 dereferenceable(16) %0) #2 comdat align 2 {
  %2 = alloca ptr, align 8
  store ptr %0, ptr %2, align 8, !tbaa !140
  %3 = load ptr, ptr %2, align 8
  %4 = getelementptr inbounds nuw %"class.gmx::ArrayRef", ptr %3, i32 0, i32 0
  %5 = call noundef ptr @_ZNK3gmx12ArrayRefIterIfE4dataEv(ptr noundef nonnull align 8 dereferenceable(8) %4) #7
  ret ptr %5
}

; Function Attrs: mustprogress uwtable
define noundef i32 @_Z23copy_fftgrid_to_pmegridPK9gmx_pme_tP14PmeAndFftGridsii(ptr noundef %0, ptr noundef %1, i32 noundef %2, i32 noundef %3) #0 {
  %5 = alloca ptr, align 8
  %6 = alloca ptr, align 8
  %7 = alloca i32, align 4
  %8 = alloca i32, align 4
  %9 = alloca ptr, align 8
  %10 = alloca ptr, align 8
  %11 = alloca [3 x i32], align 4
  %12 = alloca [3 x i32], align 4
  %13 = alloca [3 x i32], align 4
  %14 = alloca [3 x i32], align 4
  %15 = alloca i32, align 4
  %16 = alloca i32, align 4
  %17 = alloca i32, align 4
  %18 = alloca i32, align 4
  %19 = alloca i32, align 4
  %20 = alloca i32, align 4
  %21 = alloca i32, align 4
  %22 = alloca i32, align 4
  store ptr %0, ptr %5, align 8, !tbaa !4
  store ptr %1, ptr %6, align 8, !tbaa !151
  store i32 %2, ptr %7, align 4, !tbaa !9
  store i32 %3, ptr %8, align 4, !tbaa !9
  call void @llvm.lifetime.start.p0(i64 8, ptr %9) #7
  %23 = load ptr, ptr %6, align 8, !tbaa !151
  %24 = getelementptr inbounds nuw %struct.PmeAndFftGrids, ptr %23, i32 0, i32 1
  %25 = load ptr, ptr %24, align 8, !tbaa !152
  store ptr %25, ptr %9, align 8, !tbaa !130
  call void @llvm.lifetime.start.p0(i64 8, ptr %10) #7
  %26 = load ptr, ptr %6, align 8, !tbaa !151
  %27 = getelementptr inbounds nuw %struct.PmeAndFftGrids, ptr %26, i32 0, i32 0
  %28 = getelementptr inbounds nuw %struct.pmegrids_t, ptr %27, i32 0, i32 0
  %29 = getelementptr inbounds nuw %struct.pmegrid_t, ptr %28, i32 0, i32 5
  %30 = call noundef ptr @_ZNK3gmx8ArrayRefIfE4dataEv(ptr noundef nonnull align 8 dereferenceable(16) %29)
  store ptr %30, ptr %10, align 8, !tbaa !130
  call void @llvm.lifetime.start.p0(i64 12, ptr %11) #7
  call void @llvm.lifetime.start.p0(i64 12, ptr %12) #7
  call void @llvm.lifetime.start.p0(i64 12, ptr %13) #7
  call void @llvm.lifetime.start.p0(i64 12, ptr %14) #7
  call void @llvm.lifetime.start.p0(i64 4, ptr %15) #7
  call void @llvm.lifetime.start.p0(i64 4, ptr %16) #7
  call void @llvm.lifetime.start.p0(i64 4, ptr %17) #7
  call void @llvm.lifetime.start.p0(i64 4, ptr %18) #7
  call void @llvm.lifetime.start.p0(i64 4, ptr %19) #7
  call void @llvm.lifetime.start.p0(i64 4, ptr %20) #7
  call void @llvm.lifetime.start.p0(i64 4, ptr %21) #7
  call void @llvm.lifetime.start.p0(i64 4, ptr %22) #7
  %31 = load ptr, ptr %6, align 8, !tbaa !151
  %32 = getelementptr inbounds nuw %struct.PmeAndFftGrids, ptr %31, i32 0, i32 3
  %33 = call noundef ptr @_ZNKSt10unique_ptrI18gmx_parallel_3dfftN3gmx15functor_wrapperIS0_XadL_Z22parallel_3dfft_destroyPS0_EEEEE3getEv(ptr noundef nonnull align 8 dereferenceable(8) %32) #7
  %34 = getelementptr inbounds [3 x i32], ptr %11, i64 0, i64 0
  %35 = getelementptr inbounds [3 x i32], ptr %12, i64 0, i64 0
  %36 = getelementptr inbounds [3 x i32], ptr %13, i64 0, i64 0
  %37 = call noundef i32 @_Z30gmx_parallel_3dfft_real_limitsP18gmx_parallel_3dfftPiS1_S1_(ptr noundef %33, ptr noundef %34, ptr noundef %35, ptr noundef %36)
  %38 = load ptr, ptr %5, align 8, !tbaa !4
  %39 = getelementptr inbounds nuw %struct.gmx_pme_t, ptr %38, i32 0, i32 32
  %40 = load i32, ptr %39, align 4, !tbaa !115
  %41 = getelementptr inbounds [3 x i32], ptr %14, i64 0, i64 0
  store i32 %40, ptr %41, align 4, !tbaa !9
  %42 = load ptr, ptr %5, align 8, !tbaa !4
  %43 = getelementptr inbounds nuw %struct.gmx_pme_t, ptr %42, i32 0, i32 33
  %44 = load i32, ptr %43, align 8, !tbaa !117
  %45 = getelementptr inbounds [3 x i32], ptr %14, i64 0, i64 1
  store i32 %44, ptr %45, align 4, !tbaa !9
  %46 = load ptr, ptr %5, align 8, !tbaa !4
  %47 = getelementptr inbounds nuw %struct.gmx_pme_t, ptr %46, i32 0, i32 34
  %48 = load i32, ptr %47, align 4, !tbaa !118
  %49 = getelementptr inbounds [3 x i32], ptr %14, i64 0, i64 2
  store i32 %48, ptr %49, align 4, !tbaa !9
  %50 = load i32, ptr %8, align 4, !tbaa !9
  %51 = getelementptr inbounds [3 x i32], ptr %11, i64 0, i64 0
  %52 = load i32, ptr %51, align 4, !tbaa !9
  %53 = mul nsw i32 %50, %52
  %54 = getelementptr inbounds [3 x i32], ptr %11, i64 0, i64 1
  %55 = load i32, ptr %54, align 4, !tbaa !9
  %56 = mul nsw i32 %53, %55
  %57 = load i32, ptr %7, align 4, !tbaa !9
  %58 = sdiv i32 %56, %57
  store i32 %58, ptr %15, align 4, !tbaa !9
  %59 = load i32, ptr %8, align 4, !tbaa !9
  %60 = add nsw i32 %59, 1
  %61 = getelementptr inbounds [3 x i32], ptr %11, i64 0, i64 0
  %62 = load i32, ptr %61, align 4, !tbaa !9
  %63 = mul nsw i32 %60, %62
  %64 = getelementptr inbounds [3 x i32], ptr %11, i64 0, i64 1
  %65 = load i32, ptr %64, align 4, !tbaa !9
  %66 = mul nsw i32 %63, %65
  %67 = load i32, ptr %7, align 4, !tbaa !9
  %68 = sdiv i32 %66, %67
  store i32 %68, ptr %16, align 4, !tbaa !9
  %69 = load i32, ptr %15, align 4, !tbaa !9
  store i32 %69, ptr %17, align 4, !tbaa !9
  br label %70

70:                                               ; preds = %126, %4
  %71 = load i32, ptr %17, align 4, !tbaa !9
  %72 = load i32, ptr %16, align 4, !tbaa !9
  %73 = icmp slt i32 %71, %72
  br i1 %73, label %74, label %129

74:                                               ; preds = %70
  %75 = load i32, ptr %17, align 4, !tbaa !9
  %76 = getelementptr inbounds [3 x i32], ptr %11, i64 0, i64 1
  %77 = load i32, ptr %76, align 4, !tbaa !9
  %78 = sdiv i32 %75, %77
  store i32 %78, ptr %18, align 4, !tbaa !9
  %79 = load i32, ptr %17, align 4, !tbaa !9
  %80 = load i32, ptr %18, align 4, !tbaa !9
  %81 = getelementptr inbounds [3 x i32], ptr %11, i64 0, i64 1
  %82 = load i32, ptr %81, align 4, !tbaa !9
  %83 = mul nsw i32 %80, %82
  %84 = sub nsw i32 %79, %83
  store i32 %84, ptr %19, align 4, !tbaa !9
  %85 = load i32, ptr %18, align 4, !tbaa !9
  %86 = getelementptr inbounds [3 x i32], ptr %14, i64 0, i64 1
  %87 = load i32, ptr %86, align 4, !tbaa !9
  %88 = mul nsw i32 %85, %87
  %89 = load i32, ptr %19, align 4, !tbaa !9
  %90 = add nsw i32 %88, %89
  %91 = getelementptr inbounds [3 x i32], ptr %14, i64 0, i64 2
  %92 = load i32, ptr %91, align 4, !tbaa !9
  %93 = mul nsw i32 %90, %92
  store i32 %93, ptr %21, align 4, !tbaa !9
  %94 = load i32, ptr %18, align 4, !tbaa !9
  %95 = getelementptr inbounds [3 x i32], ptr %13, i64 0, i64 1
  %96 = load i32, ptr %95, align 4, !tbaa !9
  %97 = mul nsw i32 %94, %96
  %98 = load i32, ptr %19, align 4, !tbaa !9
  %99 = add nsw i32 %97, %98
  %100 = getelementptr inbounds [3 x i32], ptr %13, i64 0, i64 2
  %101 = load i32, ptr %100, align 4, !tbaa !9
  %102 = mul nsw i32 %99, %101
  store i32 %102, ptr %22, align 4, !tbaa !9
  store i32 0, ptr %20, align 4, !tbaa !9
  br label %103

103:                                              ; preds = %122, %74
  %104 = load i32, ptr %20, align 4, !tbaa !9
  %105 = getelementptr inbounds [3 x i32], ptr %11, i64 0, i64 2
  %106 = load i32, ptr %105, align 4, !tbaa !9
  %107 = icmp slt i32 %104, %106
  br i1 %107, label %108, label %125

108:                                              ; preds = %103
  %109 = load ptr, ptr %9, align 8, !tbaa !130
  %110 = load i32, ptr %22, align 4, !tbaa !9
  %111 = load i32, ptr %20, align 4, !tbaa !9
  %112 = add nsw i32 %110, %111
  %113 = sext i32 %112 to i64
  %114 = getelementptr inbounds float, ptr %109, i64 %113
  %115 = load float, ptr %114, align 4, !tbaa !119
  %116 = load ptr, ptr %10, align 8, !tbaa !130
  %117 = load i32, ptr %21, align 4, !tbaa !9
  %118 = load i32, ptr %20, align 4, !tbaa !9
  %119 = add nsw i32 %117, %118
  %120 = sext i32 %119 to i64
  %121 = getelementptr inbounds float, ptr %116, i64 %120
  store float %115, ptr %121, align 4, !tbaa !119
  br label %122

122:                                              ; preds = %108
  %123 = load i32, ptr %20, align 4, !tbaa !9
  %124 = add nsw i32 %123, 1
  store i32 %124, ptr %20, align 4, !tbaa !9
  br label %103, !llvm.loop !185

125:                                              ; preds = %103
  br label %126

126:                                              ; preds = %125
  %127 = load i32, ptr %17, align 4, !tbaa !9
  %128 = add nsw i32 %127, 1
  store i32 %128, ptr %17, align 4, !tbaa !9
  br label %70, !llvm.loop !186

129:                                              ; preds = %70
  call void @llvm.lifetime.end.p0(i64 4, ptr %22) #7
  call void @llvm.lifetime.end.p0(i64 4, ptr %21) #7
  call void @llvm.lifetime.end.p0(i64 4, ptr %20) #7
  call void @llvm.lifetime.end.p0(i64 4, ptr %19) #7
  call void @llvm.lifetime.end.p0(i64 4, ptr %18) #7
  call void @llvm.lifetime.end.p0(i64 4, ptr %17) #7
  call void @llvm.lifetime.end.p0(i64 4, ptr %16) #7
  call void @llvm.lifetime.end.p0(i64 4, ptr %15) #7
  call void @llvm.lifetime.end.p0(i64 12, ptr %14) #7
  call void @llvm.lifetime.end.p0(i64 12, ptr %13) #7
  call void @llvm.lifetime.end.p0(i64 12, ptr %12) #7
  call void @llvm.lifetime.end.p0(i64 12, ptr %11) #7
  call void @llvm.lifetime.end.p0(i64 8, ptr %10) #7
  call void @llvm.lifetime.end.p0(i64 8, ptr %9) #7
  ret i32 0
}