; Function Attrs: mustprogress uwtable
define noundef i32 @_Z23copy_fftgrid_to_pmegridPK9gmx_pme_tP14PmeAndFftGridsii(ptr noundef readonly captures(none) %0, ptr noundef readonly captures(none) %1, i32 noundef %2, i32 noundef %3) local_unnamed_addr #0 {
  %5 = alloca [3 x i32], align 4
  %6 = alloca [3 x i32], align 4
  %7 = alloca [3 x i32], align 4
  %8 = getelementptr inbounds nuw i8, ptr %1, i64 200
  %9 = load ptr, ptr %8, align 8, !tbaa !127
  %10 = getelementptr inbounds nuw i8, ptr %1, i64 56
  %11 = load ptr, ptr %10, align 8, !tbaa !125
  call void @llvm.lifetime.start.p0(i64 12, ptr nonnull %5) #8
  call void @llvm.lifetime.start.p0(i64 12, ptr nonnull %6) #8
  call void @llvm.lifetime.start.p0(i64 12, ptr nonnull %7) #8
  %12 = getelementptr inbounds nuw i8, ptr %1, i64 216
  %13 = load ptr, ptr %12, align 8, !tbaa !146
  %14 = call noundef i32 @_Z30gmx_parallel_3dfft_real_limitsP18gmx_parallel_3dfftPiS1_S1_(ptr noundef %13, ptr noundef nonnull %5, ptr noundef nonnull %6, ptr noundef nonnull %7)
  %15 = getelementptr inbounds nuw i8, ptr %0, i64 152
  %16 = load i32, ptr %15, align 8, !tbaa !106
  %17 = getelementptr inbounds nuw i8, ptr %0, i64 156
  %18 = load i32, ptr %17, align 4, !tbaa !107
  %19 = load i32, ptr %5, align 4, !tbaa !11
  %20 = getelementptr inbounds nuw i8, ptr %5, i64 4
  %21 = load i32, ptr %20, align 4, !tbaa !11
  %22 = mul i32 %21, %19
  %23 = mul i32 %22, %3
  %24 = sdiv i32 %23, %2
  %25 = add nsw i32 %3, 1
  %26 = mul i32 %22, %25
  %27 = sdiv i32 %26, %2
  %28 = icmp slt i32 %24, %27
  br i1 %28, label %.lr.ph32, label %._crit_edge33

.lr.ph32:                                         ; preds = %4
  %29 = getelementptr inbounds nuw i8, ptr %7, i64 4
  %30 = load i32, ptr %29, align 4, !tbaa !11
  %31 = getelementptr inbounds nuw i8, ptr %7, i64 8
  %32 = load i32, ptr %31, align 4, !tbaa !11
  %33 = getelementptr inbounds nuw i8, ptr %5, i64 8
  %34 = load i32, ptr %33, align 4, !tbaa !11
  %35 = icmp sgt i32 %34, 0
  br i1 %35, label %.lr.ph.us.preheader, label %._crit_edge33

.lr.ph.us.preheader:                              ; preds = %.lr.ph32
  %wide.trip.count = zext nneg i32 %34 to i64
  br label %.lr.ph.us

.lr.ph.us:                                        ; preds = %.lr.ph.us.preheader, %._crit_edge.us
  %.030.us = phi i32 [ %48, %._crit_edge.us ], [ %24, %.lr.ph.us.preheader ]
  %36 = sdiv i32 %.030.us, %21
  %37 = mul nsw i32 %36, %21
  %.recomposed = srem i32 %.030.us, %21
  %38 = mul nsw i32 %36, %16
  %39 = add nsw i32 %.recomposed, %38
  %40 = mul nsw i32 %39, %18
  %41 = mul nsw i32 %30, %36
  %42 = add nsw i32 %41, %.recomposed
  %43 = mul nsw i32 %42, %32
  %44 = sext i32 %43 to i64
  %45 = sext i32 %40 to i64
  %invariant.gep = getelementptr float, ptr %9, i64 %44
  %invariant.gep38 = getelementptr float, ptr %11, i64 %45
  br label %46

46:                                               ; preds = %.lr.ph.us, %46
  %indvars.iv = phi i64 [ 0, %.lr.ph.us ], [ %indvars.iv.next, %46 ]
  %gep = getelementptr float, ptr %invariant.gep, i64 %indvars.iv
  %47 = load float, ptr %gep, align 4, !tbaa !109
  %gep39 = getelementptr float, ptr %invariant.gep38, i64 %indvars.iv
  store float %47, ptr %gep39, align 4, !tbaa !109
  %indvars.iv.next = add nuw nsw i64 %indvars.iv, 1
  %exitcond.not = icmp eq i64 %indvars.iv.next, %wide.trip.count
  br i1 %exitcond.not, label %._crit_edge.us, label %46, !llvm.loop !150

._crit_edge.us:                                   ; preds = %46
  %48 = add nsw i32 %.030.us, 1
  %exitcond37.not = icmp eq i32 %48, %27
  br i1 %exitcond37.not, label %._crit_edge33, label %.lr.ph.us, !llvm.loop !151

._crit_edge33:                                    ; preds = %._crit_edge.us, %.lr.ph32, %4
  call void @llvm.lifetime.end.p0(i64 12, ptr nonnull %7) #8
  call void @llvm.lifetime.end.p0(i64 12, ptr nonnull %6) #8
  call void @llvm.lifetime.end.p0(i64 12, ptr nonnull %5) #8
  ret i32 0
}